; Function Attrs: mustprogress uwtable
define i64 @_ZNK8QuantLib8Schedule12previousDateERKNS_4DateE(ptr nocapture noundef nonnull readonly align 8 dereferenceable(136) %this, ptr nocapture noundef nonnull readonly align 8 dereferenceable(8) %refDate) local_unnamed_addr #4 align 2 {
entry:
  %retval = alloca %"class.QuantLib::Date", align 8
  %call = tail call ptr @_ZNK8QuantLib8Schedule11lower_boundERKNS_4DateE(ptr noundef nonnull align 8 dereferenceable(136) %this, ptr noundef nonnull align 8 dereferenceable(8) %refDate)
  %dates_ = getelementptr inbounds nuw i8, ptr %this, i64 72
  %0 = load ptr, ptr %dates_, align 8, !tbaa !46
  %cmp.i.not = icmp eq ptr %call, %0
  br i1 %cmp.i.not, label %if.else, label %if.then

if.then:                                          ; preds = %entry
  %incdec.ptr.i = getelementptr inbounds i8, ptr %call, i64 -8
  br label %cleanup

if.else:                                          ; preds = %entry
  call void @_ZN8QuantLib4DateC1Ev(ptr noundef nonnull align 8 dereferenceable(8) %retval)
  br label %cleanup

cleanup:                                          ; preds = %if.else, %if.then
  %retval.sink = phi ptr [ %retval, %if.else ], [ %incdec.ptr.i, %if.then ]
  %.pre = load i64, ptr %retval.sink, align 8
  ret i64 %.pre
}